; Function Attrs: mustprogress nofree norecurse nosync nounwind willreturn memory(argmem: read) uwtable
define internal noundef ptr @_ZN3vcg14SimpleTempDataINS_6vertex10vector_ocfI8CVertexOEESt6vectorIZN18FilterCameraPlugin11applyFilterB5cxx11EPK7QActionRK17RichParameterListR12MeshDocumentRjPFbiPKcEE14CorrespondenceSaISK_EEE9DataBeginEv(ptr nocapture noundef nonnull readonly align 8 dereferenceable(44) %0) unnamed_addr #18 align 2 {
  %2 = getelementptr inbounds i8, ptr %0, i64 16
  %.val = load ptr, ptr %2, align 8
  %3 = getelementptr inbounds i8, ptr %0, i64 24
  %.val1 = load ptr, ptr %3, align 8
  %4 = icmp eq ptr %.val, %.val1
  %spec.select = select i1 %4, ptr null, ptr %.val
  ret ptr %spec.select
}